; Function Attrs: nounwind uwtable
define dso_local range(i64 0, 2) i64 @textgename(ptr noundef readonly captures(none) %0) local_unnamed_addr #0 {
  %2 = getelementptr inbounds nuw i8, ptr %0, i64 24
  %3 = load i32, ptr %2, align 8
  %4 = getelementptr inbounds nuw i8, ptr %0, i64 32
  %5 = load i64, ptr %4, align 8
  %6 = getelementptr inbounds nuw i8, ptr %0, i64 48
  %7 = load i64, ptr %6, align 8
  %8 = tail call i64 @DirectFunctionCall2Coll(ptr noundef nonnull @bttextnamecmp, i32 noundef %3, i64 noundef %5, i64 noundef %7) #19
  %9 = lshr i64 %8, 31
  %.lobit = and i64 %9, 1
  %10 = xor i64 %.lobit, 1
  ret i64 %10
}